target datalayout = "e-m:e-p270:32:32-p271:32:32-p272:64:64-i64:64-i128:128-f80:128-n8:16:32:64-S128"
target triple = "x86_64-pc-linux-gnu"

%"class.llvm::MCLOHDirective" = type { i32, %"class.llvm::SmallVector" }
%"class.llvm::SmallVector" = type { %"class.llvm::SmallVectorImpl", %"struct.llvm::SmallVectorStorage" }
%"class.llvm::SmallVectorImpl" = type { %"class.llvm::SmallVectorTemplateBase" }
%"class.llvm::SmallVectorTemplateBase" = type { %"class.llvm::SmallVectorTemplateCommon" }
%"class.llvm::SmallVectorTemplateCommon" = type { %"class.llvm::SmallVectorBase" }
%"class.llvm::SmallVectorBase" = type { ptr, i32, i32 }
%"struct.llvm::SmallVectorStorage" = type { [24 x i8] }
%"class.llvm::raw_ostream" = type { ptr, i32, ptr, ptr, ptr, i8, i32 }

; Function Attrs: mustprogress nounwind uwtable
define linkonce_odr hidden noundef nonnull align 8 dereferenceable(48) ptr @_ZN4llvm11raw_ostreamlsEc(ptr noundef nonnull align 8 dereferenceable(48) %0, i8 noundef signext %1) #0 comdat align 2 {
  %3 = alloca ptr, align 8
  %4 = alloca ptr, align 8
  %5 = alloca i8, align 1
  store ptr %0, ptr %4, align 8
  store i8 %1, ptr %5, align 1
  %6 = load ptr, ptr %4, align 8
  %7 = getelementptr inbounds nuw %"class.llvm::raw_ostream", ptr %6, i32 0, i32 4
  %8 = load ptr, ptr %7, align 8
  %9 = getelementptr inbounds nuw %"class.llvm::raw_ostream", ptr %6, i32 0, i32 3
  %10 = load ptr, ptr %9, align 8
  %11 = icmp uge ptr %8, %10
  br i1 %11, label %12, label %15

12:                                               ; preds = %2
  %13 = load i8, ptr %5, align 1
  %14 = call noundef nonnull align 8 dereferenceable(48) ptr @_ZN4llvm11raw_ostream5writeEh(ptr noundef nonnull align 8 dereferenceable(48) %6, i8 noundef zeroext %13)
  store ptr %14, ptr %3, align 8
  br label %20

15:                                               ; preds = %2
  %16 = load i8, ptr %5, align 1
  %17 = getelementptr inbounds nuw %"class.llvm::raw_ostream", ptr %6, i32 0, i32 4
  %18 = load ptr, ptr %17, align 8
  %19 = getelementptr inbounds i8, ptr %18, i32 1
  store ptr %19, ptr %17, align 8
  store i8 %16, ptr %18, align 1
  store ptr %6, ptr %3, align 8
  br label %20

20:                                               ; preds = %15, %12
  %21 = load ptr, ptr %3, align 8
  ret ptr %21
}

; Function Attrs: mustprogress nounwind uwtable
define linkonce_odr hidden noundef ptr @_ZNK4llvm25SmallVectorTemplateCommonIPNS_8MCSymbolEvE3endEv(ptr noundef nonnull align 8 dereferenceable(16) %0) #0 comdat align 2 {
  %2 = alloca ptr, align 8
  store ptr %0, ptr %2, align 8
  %3 = load ptr, ptr %2, align 8
  %4 = call noundef ptr @_ZNK4llvm25SmallVectorTemplateCommonIPNS_8MCSymbolEvE5beginEv(ptr noundef nonnull align 8 dereferenceable(16) %3)
  %5 = call noundef i64 @_ZNK4llvm15SmallVectorBaseIjE4sizeEv(ptr noundef nonnull align 8 dereferenceable(16) %3)
  %6 = getelementptr inbounds ptr, ptr %4, i64 %5
  ret ptr %6
}

; Function Attrs: mustprogress nounwind uwtable
define linkonce_odr hidden noundef ptr @_ZNK4llvm25SmallVectorTemplateCommonIPNS_8MCSymbolEvE5beginEv(ptr noundef nonnull align 8 dereferenceable(16) %0) #0 comdat align 2 {
  %2 = alloca ptr, align 8
  store ptr %0, ptr %2, align 8
  %3 = load ptr, ptr %2, align 8
  %4 = getelementptr inbounds nuw %"class.llvm::SmallVectorBase", ptr %3, i32 0, i32 0
  %5 = load ptr, ptr %4, align 8
  ret ptr %5
}

; Function Attrs: mustprogress nounwind uwtable
define linkonce_odr hidden noundef i32 @_ZN4llvm13encodeULEB128EmRNS_11raw_ostreamEj(i64 noundef %0, ptr noundef nonnull align 8 dereferenceable(48) %1, i32 noundef %2) #0 comdat {
  %4 = alloca i64, align 8
  %5 = alloca ptr, align 8
  %6 = alloca i32, align 4
  %7 = alloca i32, align 4
  %8 = alloca i8, align 1
  store i64 %0, ptr %4, align 8
  store ptr %1, ptr %5, align 8
  store i32 %2, ptr %6, align 4
  store i32 0, ptr %7, align 4
  br label %9

9:                                                ; preds = %32, %3
  %10 = load i64, ptr %4, align 8
  %11 = and i64 %10, 127
  %12 = trunc i64 %11 to i8
  store i8 %12, ptr %8, align 1
  %13 = load i64, ptr %4, align 8
  %14 = lshr i64 %13, 7
  store i64 %14, ptr %4, align 8
  %15 = load i32, ptr %7, align 4
  %16 = add i32 %15, 1
  store i32 %16, ptr %7, align 4
  %17 = load i64, ptr %4, align 8
  %18 = icmp ne i64 %17, 0
  br i1 %18, label %23, label %19

19:                                               ; preds = %9
  %20 = load i32, ptr %7, align 4
  %21 = load i32, ptr %6, align 4
  %22 = icmp ult i32 %20, %21
  br i1 %22, label %23, label %28

23:                                               ; preds = %19, %9
  %24 = load i8, ptr %8, align 1
  %25 = zext i8 %24 to i32
  %26 = or i32 %25, 128
  %27 = trunc i32 %26 to i8
  store i8 %27, ptr %8, align 1
  br label %28

28:                                               ; preds = %23, %19
  %29 = load ptr, ptr %5, align 8
  %30 = load i8, ptr %8, align 1
  %31 = call noundef nonnull align 8 dereferenceable(48) ptr @_ZN4llvm11raw_ostreamlsEc(ptr noundef nonnull align 8 dereferenceable(48) %29, i8 noundef signext %30)
  br label %32

32:                                               ; preds = %28
  %33 = load i64, ptr %4, align 8
  %34 = icmp ne i64 %33, 0
  br i1 %34, label %9, label %35, !llvm.loop !4

35:                                               ; preds = %32
  %36 = load i32, ptr %7, align 4
  %37 = load i32, ptr %6, align 4
  %38 = icmp ult i32 %36, %37
  br i1 %38, label %39, label %56

39:                                               ; preds = %35
  br label %40

40:                                               ; preds = %48, %39
  %41 = load i32, ptr %7, align 4
  %42 = load i32, ptr %6, align 4
  %43 = sub i32 %42, 1
  %44 = icmp ult i32 %41, %43
  br i1 %44, label %45, label %51

45:                                               ; preds = %40
  %46 = load ptr, ptr %5, align 8
  %47 = call noundef nonnull align 8 dereferenceable(48) ptr @_ZN4llvm11raw_ostreamlsEc(ptr noundef nonnull align 8 dereferenceable(48) %46, i8 noundef signext -128)
  br label %48

48:                                               ; preds = %45
  %49 = load i32, ptr %7, align 4
  %50 = add i32 %49, 1
  store i32 %50, ptr %7, align 4
  br label %40, !llvm.loop !6

51:                                               ; preds = %40
  %52 = load ptr, ptr %5, align 8
  %53 = call noundef nonnull align 8 dereferenceable(48) ptr @_ZN4llvm11raw_ostreamlsEc(ptr noundef nonnull align 8 dereferenceable(48) %52, i8 noundef signext 0)
  %54 = load i32, ptr %7, align 4
  %55 = add i32 %54, 1
  store i32 %55, ptr %7, align 4
  br label %56

56:                                               ; preds = %51, %35
  %57 = load i32, ptr %7, align 4
  ret i32 %57
}

; Function Attrs: mustprogress nounwind uwtable
define dso_local void @_ZNK4llvm14MCLOHDirective9emit_implERKNS_11MCAssemblerERNS_11raw_ostreamERKNS_16MachObjectWriterE(ptr noundef nonnull align 8 dereferenceable(48) %0, ptr noundef nonnull align 1 %1, ptr noundef nonnull align 8 dereferenceable(48) %2, ptr noundef nonnull align 8 dereferenceable(2032) %3) #0 align 2 {
  %5 = alloca ptr, align 8
  %6 = alloca ptr, align 8
  %7 = alloca ptr, align 8
  %8 = alloca ptr, align 8
  %9 = alloca ptr, align 8
  %10 = alloca ptr, align 8
  %11 = alloca ptr, align 8
  %12 = alloca ptr, align 8
  store ptr %0, ptr %5, align 8
  store ptr %1, ptr %6, align 8
  store ptr %2, ptr %7, align 8
  store ptr %3, ptr %8, align 8
  %13 = load ptr, ptr %5, align 8
  %14 = getelementptr inbounds nuw %"class.llvm::MCLOHDirective", ptr %13, i32 0, i32 0
  %15 = load i32, ptr %14, align 8
  %16 = zext i32 %15 to i64
  %17 = load ptr, ptr %7, align 8
  %18 = call noundef i32 @_ZN4llvm13encodeULEB128EmRNS_11raw_ostreamEj(i64 noundef %16, ptr noundef nonnull align 8 dereferenceable(48) %17, i32 noundef 0)
  %19 = getelementptr inbounds nuw %"class.llvm::MCLOHDirective", ptr %13, i32 0, i32 1
  %20 = call noundef i64 @_ZNK4llvm15SmallVectorBaseIjE4sizeEv(ptr noundef nonnull align 8 dereferenceable(16) %19)
  %21 = load ptr, ptr %7, align 8
  %22 = call noundef i32 @_ZN4llvm13encodeULEB128EmRNS_11raw_ostreamEj(i64 noundef %20, ptr noundef nonnull align 8 dereferenceable(48) %21, i32 noundef 0)
  %23 = getelementptr inbounds nuw %"class.llvm::MCLOHDirective", ptr %13, i32 0, i32 1
  store ptr %23, ptr %9, align 8
  %24 = load ptr, ptr %9, align 8
  %25 = call noundef ptr @_ZNK4llvm25SmallVectorTemplateCommonIPNS_8MCSymbolEvE5beginEv(ptr noundef nonnull align 8 dereferenceable(16) %24)
  store ptr %25, ptr %10, align 8
  %26 = load ptr, ptr %9, align 8
  %27 = call noundef ptr @_ZNK4llvm25SmallVectorTemplateCommonIPNS_8MCSymbolEvE3endEv(ptr noundef nonnull align 8 dereferenceable(16) %26)
  store ptr %27, ptr %11, align 8
  br label %28

28:                                               ; preds = %41, %4
  %29 = load ptr, ptr %10, align 8
  %30 = load ptr, ptr %11, align 8
  %31 = icmp ne ptr %29, %30
  br i1 %31, label %32, label %44

32:                                               ; preds = %28
  %33 = load ptr, ptr %10, align 8
  %34 = load ptr, ptr %33, align 8
  store ptr %34, ptr %12, align 8
  %35 = load ptr, ptr %8, align 8
  %36 = load ptr, ptr %12, align 8
  %37 = load ptr, ptr %6, align 8
  %38 = call noundef i64 @_ZNK4llvm16MachObjectWriter16getSymbolAddressERKNS_8MCSymbolERKNS_11MCAssemblerE(ptr noundef nonnull align 8 dereferenceable(2032) %35, ptr noundef nonnull align 8 dereferenceable(32) %36, ptr noundef nonnull align 1 %37)
  %39 = load ptr, ptr %7, align 8
  %40 = call noundef i32 @_ZN4llvm13encodeULEB128EmRNS_11raw_ostreamEj(i64 noundef %38, ptr noundef nonnull align 8 dereferenceable(48) %39, i32 noundef 0)
  br label %41

41:                                               ; preds = %32
  %42 = load ptr, ptr %10, align 8
  %43 = getelementptr inbounds ptr, ptr %42, i32 1
  store ptr %43, ptr %10, align 8
  br label %28

44:                                               ; preds = %28
  ret void
}