; Function Attrs: mustprogress nounwind uwtable
define dso_local void @_ZNK4llvm14MCLOHDirective9emit_implERKNS_11MCAssemblerERNS_11raw_ostreamERKNS_16MachObjectWriterE(ptr noundef nonnull align 8 dereferenceable(48) %0, ptr noundef nonnull align 1 %1, ptr noundef nonnull align 8 dereferenceable(48) %2, ptr noundef nonnull align 8 dereferenceable(2032) %3) local_unnamed_addr #0 align 2 {
  %5 = load i32, ptr %0, align 8
  %6 = zext i32 %5 to i64
  %7 = getelementptr inbounds nuw i8, ptr %2, i64 32
  %8 = getelementptr inbounds nuw i8, ptr %2, i64 24
  br label %9

9:                                                ; preds = %_ZN4llvm11raw_ostreamlsEc.exit.i, %4
  %.019.i = phi i64 [ %6, %4 ], [ %10, %_ZN4llvm11raw_ostreamlsEc.exit.i ]
  %10 = lshr i64 %.019.i, 7
  %.not.i = icmp ugt i64 %.019.i, 127
  %11 = trunc i64 %.019.i to i8
  %12 = or i8 %11, -128
  %.0.i = select i1 %.not.i, i8 %12, i8 %11
  %13 = load ptr, ptr %7, align 8
  %14 = load ptr, ptr %8, align 8
  %.not.i.i = icmp ult ptr %13, %14
  br i1 %.not.i.i, label %17, label %15

15:                                               ; preds = %9
  %16 = tail call noundef nonnull align 8 dereferenceable(48) ptr @_ZN4llvm11raw_ostream5writeEh(ptr noundef nonnull align 8 dereferenceable(48) %2, i8 noundef zeroext %.0.i) #7
  br label %_ZN4llvm11raw_ostreamlsEc.exit.i

17:                                               ; preds = %9
  %18 = getelementptr inbounds i8, ptr %13, i64 1
  store ptr %18, ptr %7, align 8
  store i8 %.0.i, ptr %13, align 1
  br label %_ZN4llvm11raw_ostreamlsEc.exit.i

_ZN4llvm11raw_ostreamlsEc.exit.i:                 ; preds = %17, %15
  br i1 %.not.i, label %9, label %_ZN4llvm13encodeULEB128EmRNS_11raw_ostreamEj.exit, !llvm.loop !4

_ZN4llvm13encodeULEB128EmRNS_11raw_ostreamEj.exit: ; preds = %_ZN4llvm11raw_ostreamlsEc.exit.i
  %19 = getelementptr inbounds nuw i8, ptr %0, i64 8
  %20 = tail call noundef i64 @_ZNK4llvm15SmallVectorBaseIjE4sizeEv(ptr noundef nonnull align 8 dereferenceable(16) %19) #7
  br label %21

21:                                               ; preds = %_ZN4llvm11raw_ostreamlsEc.exit.i18, %_ZN4llvm13encodeULEB128EmRNS_11raw_ostreamEj.exit
  %.019.i13 = phi i64 [ %20, %_ZN4llvm13encodeULEB128EmRNS_11raw_ostreamEj.exit ], [ %22, %_ZN4llvm11raw_ostreamlsEc.exit.i18 ]
  %22 = lshr i64 %.019.i13, 7
  %.not.i15 = icmp ugt i64 %.019.i13, 127
  %23 = trunc i64 %.019.i13 to i8
  %24 = or i8 %23, -128
  %.0.i16 = select i1 %.not.i15, i8 %24, i8 %23
  %25 = load ptr, ptr %7, align 8
  %26 = load ptr, ptr %8, align 8
  %.not.i.i17 = icmp ult ptr %25, %26
  br i1 %.not.i.i17, label %29, label %27

27:                                               ; preds = %21
  %28 = tail call noundef nonnull align 8 dereferenceable(48) ptr @_ZN4llvm11raw_ostream5writeEh(ptr noundef nonnull align 8 dereferenceable(48) %2, i8 noundef zeroext %.0.i16) #7
  br label %_ZN4llvm11raw_ostreamlsEc.exit.i18

29:                                               ; preds = %21
  %30 = getelementptr inbounds i8, ptr %25, i64 1
  store ptr %30, ptr %7, align 8
  store i8 %.0.i16, ptr %25, align 1
  br label %_ZN4llvm11raw_ostreamlsEc.exit.i18

_ZN4llvm11raw_ostreamlsEc.exit.i18:               ; preds = %29, %27
  br i1 %.not.i15, label %21, label %_ZN4llvm13encodeULEB128EmRNS_11raw_ostreamEj.exit19, !llvm.loop !4

_ZN4llvm13encodeULEB128EmRNS_11raw_ostreamEj.exit19: ; preds = %_ZN4llvm11raw_ostreamlsEc.exit.i18
  %31 = load ptr, ptr %19, align 8
  %32 = tail call noundef i64 @_ZNK4llvm15SmallVectorBaseIjE4sizeEv(ptr noundef nonnull align 8 dereferenceable(16) %19) #7
  %33 = getelementptr inbounds ptr, ptr %31, i64 %32
  %.not27 = icmp eq i64 %32, 0
  br i1 %.not27, label %._crit_edge, label %.lr.ph

.lr.ph:                                           ; preds = %_ZN4llvm13encodeULEB128EmRNS_11raw_ostreamEj.exit19, %_ZN4llvm13encodeULEB128EmRNS_11raw_ostreamEj.exit26
  %.028 = phi ptr [ %46, %_ZN4llvm13encodeULEB128EmRNS_11raw_ostreamEj.exit26 ], [ %31, %_ZN4llvm13encodeULEB128EmRNS_11raw_ostreamEj.exit19 ]
  %34 = load ptr, ptr %.028, align 8
  %35 = tail call noundef i64 @_ZNK4llvm16MachObjectWriter16getSymbolAddressERKNS_8MCSymbolERKNS_11MCAssemblerE(ptr noundef nonnull align 8 dereferenceable(2032) %3, ptr noundef nonnull align 8 dereferenceable(32) %34, ptr noundef nonnull align 1 %1) #7
  br label %36

36:                                               ; preds = %_ZN4llvm11raw_ostreamlsEc.exit.i25, %.lr.ph
  %.019.i20 = phi i64 [ %35, %.lr.ph ], [ %37, %_ZN4llvm11raw_ostreamlsEc.exit.i25 ]
  %37 = lshr i64 %.019.i20, 7
  %.not.i22 = icmp ugt i64 %.019.i20, 127
  %38 = trunc i64 %.019.i20 to i8
  %39 = or i8 %38, -128
  %.0.i23 = select i1 %.not.i22, i8 %39, i8 %38
  %40 = load ptr, ptr %7, align 8
  %41 = load ptr, ptr %8, align 8
  %.not.i.i24 = icmp ult ptr %40, %41
  br i1 %.not.i.i24, label %44, label %42

42:                                               ; preds = %36
  %43 = tail call noundef nonnull align 8 dereferenceable(48) ptr @_ZN4llvm11raw_ostream5writeEh(ptr noundef nonnull align 8 dereferenceable(48) %2, i8 noundef zeroext %.0.i23) #7
  br label %_ZN4llvm11raw_ostreamlsEc.exit.i25

44:                                               ; preds = %36
  %45 = getelementptr inbounds i8, ptr %40, i64 1
  store ptr %45, ptr %7, align 8
  store i8 %.0.i23, ptr %40, align 1
  br label %_ZN4llvm11raw_ostreamlsEc.exit.i25

_ZN4llvm11raw_ostreamlsEc.exit.i25:               ; preds = %44, %42
  br i1 %.not.i22, label %36, label %_ZN4llvm13encodeULEB128EmRNS_11raw_ostreamEj.exit26, !llvm.loop !4

_ZN4llvm13encodeULEB128EmRNS_11raw_ostreamEj.exit26: ; preds = %_ZN4llvm11raw_ostreamlsEc.exit.i25
  %46 = getelementptr inbounds i8, ptr %.028, i64 8
  %.not = icmp eq ptr %46, %33
  br i1 %.not, label %._crit_edge, label %.lr.ph

._crit_edge:                                      ; preds = %_ZN4llvm13encodeULEB128EmRNS_11raw_ostreamEj.exit26, %_ZN4llvm13encodeULEB128EmRNS_11raw_ostreamEj.exit19
  ret void
}